; ModuleID = 'source-C-CXX/25/509.cpp'
source_filename = "source-C-CXX/25/509.cpp"
target datalayout = "e-m:e-p270:32:32-p271:32:32-p272:64:64-i64:64-f80:128-n8:16:32:64-S128"
target triple = "x86_64-pc-linux-gnu"

%"class.std::ios_base::Init" = type { i8 }
%"class.std::basic_istream" = type { i32 (...)**, i64, %"class.std::basic_ios" }
%"class.std::basic_ios" = type { %"class.std::ios_base", %"class.std::basic_ostream"*, i8, i8, %"class.std::basic_streambuf"*, %"class.std::ctype"*, %"class.std::num_put"*, %"class.std::num_get"* }
%"class.std::ios_base" = type { i32 (...)**, i64, i64, i32, i32, i32, %"struct.std::ios_base::_Callback_list"*, %"struct.std::ios_base::_Words", [8 x %"struct.std::ios_base::_Words"], i32, %"struct.std::ios_base::_Words"*, %"class.std::locale" }
%"struct.std::ios_base::_Callback_list" = type { %"struct.std::ios_base::_Callback_list"*, void (i32, %"class.std::ios_base"*, i32)*, i32, i32 }
%"struct.std::ios_base::_Words" = type { i8*, i64 }
%"class.std::locale" = type { %"class.std::locale::_Impl"* }
%"class.std::locale::_Impl" = type { i32, %"class.std::locale::facet"**, i64, %"class.std::locale::facet"**, i8** }
%"class.std::locale::facet" = type <{ i32 (...)**, i32, [4 x i8] }>
%"class.std::basic_ostream" = type { i32 (...)**, %"class.std::basic_ios" }
%"class.std::basic_streambuf" = type { i32 (...)**, i8*, i8*, i8*, i8*, i8*, i8*, %"class.std::locale" }
%"class.std::ctype" = type <{ %"class.std::locale::facet.base", [4 x i8], %struct.__locale_struct*, i8, [7 x i8], i32*, i32*, i16*, i8, [256 x i8], [256 x i8], i8, [6 x i8] }>
%"class.std::locale::facet.base" = type <{ i32 (...)**, i32 }>
%struct.__locale_struct = type { [13 x %struct.__locale_data*], i16*, i32*, i32*, [13 x i8*] }
%struct.__locale_data = type opaque
%"class.std::num_put" = type { %"class.std::locale::facet.base", [4 x i8] }
%"class.std::num_get" = type { %"class.std::locale::facet.base", [4 x i8] }

@_ZStL8__ioinit = internal global %"class.std::ios_base::Init" zeroinitializer, align 1
@__dso_handle = external hidden global i8
@_ZSt3cin = external global %"class.std::basic_istream", align 8
@_ZSt4cout = external global %"class.std::basic_ostream", align 8
@llvm.global_ctors = appending global [1 x { i32, void ()*, i8* }] [{ i32, void ()*, i8* } { i32 65535, void ()* @_GLOBAL__sub_I_509.cpp, i8* null }]

declare void @_ZNSt8ios_base4InitC1Ev(%"class.std::ios_base::Init"* nonnull align 1 dereferenceable(1)) unnamed_addr #0

; Function Attrs: nounwind
declare void @_ZNSt8ios_base4InitD1Ev(%"class.std::ios_base::Init"* nonnull align 1 dereferenceable(1)) unnamed_addr #1

; Function Attrs: nofree nounwind
declare i32 @__cxa_atexit(void (i8*)*, i8*, i8*) local_unnamed_addr #2

; Function Attrs: mustprogress norecurse sspstrong uwtable
define dso_local i32 @main() local_unnamed_addr #3 {
  %1 = alloca i8, align 1
  %2 = alloca [101 x i8], align 16
  %3 = getelementptr inbounds [101 x i8], [101 x i8]* %2, i64 0, i64 0
  call void @llvm.lifetime.start.p0i8(i64 101, i8* nonnull %3) #9
  %4 = load i8*, i8** bitcast (%"class.std::basic_istream"* @_ZSt3cin to i8**), align 8, !tbaa !5
  %5 = getelementptr i8, i8* %4, i64 -24
  %6 = bitcast i8* %5 to i64*
  %7 = load i64, i64* %6, align 8
  %8 = add nsw i64 %7, 240
  %9 = getelementptr inbounds i8, i8* bitcast (%"class.std::basic_istream"* @_ZSt3cin to i8*), i64 %8
  %10 = bitcast i8* %9 to %"class.std::ctype"**
  %11 = load %"class.std::ctype"*, %"class.std::ctype"** %10, align 8, !tbaa !8
  %12 = icmp eq %"class.std::ctype"* %11, null
  br i1 %12, label %13, label %14

13:                                               ; preds = %0
  tail call void @_ZSt16__throw_bad_castv() #10
  unreachable

14:                                               ; preds = %0
  %15 = getelementptr inbounds %"class.std::ctype", %"class.std::ctype"* %11, i64 0, i32 8
  %16 = load i8, i8* %15, align 8, !tbaa !13
  %17 = icmp eq i8 %16, 0
  br i1 %17, label %21, label %18

18:                                               ; preds = %14
  %19 = getelementptr inbounds %"class.std::ctype", %"class.std::ctype"* %11, i64 0, i32 9, i64 10
  %20 = load i8, i8* %19, align 1, !tbaa !15
  br label %27

21:                                               ; preds = %14
  tail call void @_ZNKSt5ctypeIcE13_M_widen_initEv(%"class.std::ctype"* nonnull align 8 dereferenceable(570) %11)
  %22 = bitcast %"class.std::ctype"* %11 to i8 (%"class.std::ctype"*, i8)***
  %23 = load i8 (%"class.std::ctype"*, i8)**, i8 (%"class.std::ctype"*, i8)*** %22, align 8, !tbaa !5
  %24 = getelementptr inbounds i8 (%"class.std::ctype"*, i8)*, i8 (%"class.std::ctype"*, i8)** %23, i64 6
  %25 = load i8 (%"class.std::ctype"*, i8)*, i8 (%"class.std::ctype"*, i8)** %24, align 8
  %26 = tail call signext i8 %25(%"class.std::ctype"* nonnull align 8 dereferenceable(570) %11, i8 signext 10)
  br label %27

27:                                               ; preds = %18, %21
  %28 = phi i8 [ %20, %18 ], [ %26, %21 ]
  %29 = call nonnull align 8 dereferenceable(16) %"class.std::basic_istream"* @_ZNSi7getlineEPclc(%"class.std::basic_istream"* nonnull align 8 dereferenceable(16) @_ZSt3cin, i8* nonnull %3, i64 101, i8 signext %28)
  %30 = call i64 @strlen(i8* noundef nonnull %3) #11
  %31 = trunc i64 %30 to i32
  %32 = icmp sgt i32 %31, 0
  br i1 %32, label %33, label %175

33:                                               ; preds = %27
  %34 = shl i64 %30, 32
  %35 = ashr exact i64 %34, 32
  br label %40

36:                                               ; preds = %162
  %37 = icmp sgt i32 %166, 0
  br i1 %37, label %38, label %175

38:                                               ; preds = %36
  %39 = zext i32 %166 to i64
  br label %168

40:                                               ; preds = %33, %162
  %41 = phi i32 [ %164, %162 ], [ 0, %33 ]
  %42 = phi i32 [ %165, %162 ], [ 0, %33 ]
  %43 = sext i32 %42 to i64
  %44 = getelementptr inbounds [101 x i8], [101 x i8]* %2, i64 0, i64 %43
  %45 = load i8, i8* %44, align 1, !tbaa !15
  %46 = icmp eq i8 %45, 32
  br i1 %46, label %47, label %162

47:                                               ; preds = %40
  %48 = add nsw i32 %42, 1
  %49 = sext i32 %48 to i64
  %50 = getelementptr inbounds [101 x i8], [101 x i8]* %2, i64 0, i64 %49
  %51 = load i8, i8* %50, align 1, !tbaa !15
  %52 = icmp eq i8 %51, 32
  br i1 %52, label %53, label %162

53:                                               ; preds = %47
  %54 = add nsw i32 %41, 1
  %55 = sub nsw i32 %31, %54
  %56 = icmp slt i32 %42, %55
  br i1 %56, label %57, label %160

57:                                               ; preds = %53
  %58 = sext i32 %55 to i64
  %59 = add nsw i64 %43, 1
  %60 = call i64 @llvm.smax.i64(i64 %58, i64 %59)
  %61 = sub i64 %60, %43
  %62 = icmp ult i64 %61, 8
  br i1 %62, label %151, label %63

63:                                               ; preds = %57
  %64 = icmp ult i64 %61, 32
  br i1 %64, label %127, label %65

65:                                               ; preds = %63
  %66 = and i64 %61, -32
  %67 = add i64 %66, -32
  %68 = lshr exact i64 %67, 5
  %69 = add nuw nsw i64 %68, 1
  %70 = and i64 %69, 1
  %71 = icmp eq i64 %67, 0
  br i1 %71, label %105, label %72

72:                                               ; preds = %65
  %73 = and i64 %69, 1152921504606846974
  br label %74

74:                                               ; preds = %74, %72
  %75 = phi i64 [ 0, %72 ], [ %102, %74 ]
  %76 = phi i64 [ %73, %72 ], [ %103, %74 ]
  %77 = add i64 %75, %43
  %78 = add nsw i64 %77, 1
  %79 = getelementptr inbounds [101 x i8], [101 x i8]* %2, i64 0, i64 %78
  %80 = bitcast i8* %79 to <16 x i8>*
  %81 = load <16 x i8>, <16 x i8>* %80, align 1, !tbaa !15
  %82 = getelementptr inbounds i8, i8* %79, i64 16
  %83 = bitcast i8* %82 to <16 x i8>*
  %84 = load <16 x i8>, <16 x i8>* %83, align 1, !tbaa !15
  %85 = getelementptr inbounds [101 x i8], [101 x i8]* %2, i64 0, i64 %77
  %86 = bitcast i8* %85 to <16 x i8>*
  store <16 x i8> %81, <16 x i8>* %86, align 1, !tbaa !15
  %87 = getelementptr inbounds i8, i8* %85, i64 16
  %88 = bitcast i8* %87 to <16 x i8>*
  store <16 x i8> %84, <16 x i8>* %88, align 1, !tbaa !15
  %89 = or i64 %75, 32
  %90 = add i64 %89, %43
  %91 = add nsw i64 %90, 1
  %92 = getelementptr inbounds [101 x i8], [101 x i8]* %2, i64 0, i64 %91
  %93 = bitcast i8* %92 to <16 x i8>*
  %94 = load <16 x i8>, <16 x i8>* %93, align 1, !tbaa !15
  %95 = getelementptr inbounds i8, i8* %92, i64 16
  %96 = bitcast i8* %95 to <16 x i8>*
  %97 = load <16 x i8>, <16 x i8>* %96, align 1, !tbaa !15
  %98 = getelementptr inbounds [101 x i8], [101 x i8]* %2, i64 0, i64 %90
  %99 = bitcast i8* %98 to <16 x i8>*
  store <16 x i8> %94, <16 x i8>* %99, align 1, !tbaa !15
  %100 = getelementptr inbounds i8, i8* %98, i64 16
  %101 = bitcast i8* %100 to <16 x i8>*
  store <16 x i8> %97, <16 x i8>* %101, align 1, !tbaa !15
  %102 = add nuw i64 %75, 64
  %103 = add i64 %76, -2
  %104 = icmp eq i64 %103, 0
  br i1 %104, label %105, label %74, !llvm.loop !16

105:                                              ; preds = %74, %65
  %106 = phi i64 [ 0, %65 ], [ %102, %74 ]
  %107 = icmp eq i64 %70, 0
  br i1 %107, label %121, label %108

108:                                              ; preds = %105
  %109 = add i64 %106, %43
  %110 = add nsw i64 %109, 1
  %111 = getelementptr inbounds [101 x i8], [101 x i8]* %2, i64 0, i64 %110
  %112 = bitcast i8* %111 to <16 x i8>*
  %113 = load <16 x i8>, <16 x i8>* %112, align 1, !tbaa !15
  %114 = getelementptr inbounds i8, i8* %111, i64 16
  %115 = bitcast i8* %114 to <16 x i8>*
  %116 = load <16 x i8>, <16 x i8>* %115, align 1, !tbaa !15
  %117 = getelementptr inbounds [101 x i8], [101 x i8]* %2, i64 0, i64 %109
  %118 = bitcast i8* %117 to <16 x i8>*
  store <16 x i8> %113, <16 x i8>* %118, align 1, !tbaa !15
  %119 = getelementptr inbounds i8, i8* %117, i64 16
  %120 = bitcast i8* %119 to <16 x i8>*
  store <16 x i8> %116, <16 x i8>* %120, align 1, !tbaa !15
  br label %121

121:                                              ; preds = %105, %108
  %122 = icmp eq i64 %61, %66
  br i1 %122, label %160, label %123

123:                                              ; preds = %121
  %124 = add i64 %66, %43
  %125 = and i64 %61, 24
  %126 = icmp eq i64 %125, 0
  br i1 %126, label %151, label %127

127:                                              ; preds = %63, %123
  %128 = phi i64 [ %66, %123 ], [ 0, %63 ]
  %129 = add i32 %41, 1
  %130 = sext i32 %129 to i64
  %131 = sub nsw i64 %35, %130
  %132 = sext i32 %42 to i64
  %133 = add nsw i64 %132, 1
  %134 = call i64 @llvm.smax.i64(i64 %131, i64 %133)
  %135 = sub i64 %134, %132
  %136 = and i64 %135, -8
  %137 = add i64 %136, %43
  br label %138

138:                                              ; preds = %138, %127
  %139 = phi i64 [ %128, %127 ], [ %147, %138 ]
  %140 = add i64 %139, %43
  %141 = add nsw i64 %140, 1
  %142 = getelementptr inbounds [101 x i8], [101 x i8]* %2, i64 0, i64 %141
  %143 = bitcast i8* %142 to <8 x i8>*
  %144 = load <8 x i8>, <8 x i8>* %143, align 1, !tbaa !15
  %145 = getelementptr inbounds [101 x i8], [101 x i8]* %2, i64 0, i64 %140
  %146 = bitcast i8* %145 to <8 x i8>*
  store <8 x i8> %144, <8 x i8>* %146, align 1, !tbaa !15
  %147 = add nuw i64 %139, 8
  %148 = icmp eq i64 %147, %136
  br i1 %148, label %149, label %138, !llvm.loop !19

149:                                              ; preds = %138
  %150 = icmp eq i64 %135, %136
  br i1 %150, label %160, label %151

151:                                              ; preds = %57, %123, %149
  %152 = phi i64 [ %43, %57 ], [ %124, %123 ], [ %137, %149 ]
  br label %153

153:                                              ; preds = %151, %153
  %154 = phi i64 [ %155, %153 ], [ %152, %151 ]
  %155 = add nsw i64 %154, 1
  %156 = getelementptr inbounds [101 x i8], [101 x i8]* %2, i64 0, i64 %155
  %157 = load i8, i8* %156, align 1, !tbaa !15
  %158 = getelementptr inbounds [101 x i8], [101 x i8]* %2, i64 0, i64 %154
  store i8 %157, i8* %158, align 1, !tbaa !15
  %159 = icmp slt i64 %155, %58
  br i1 %159, label %153, label %160, !llvm.loop !20

160:                                              ; preds = %153, %121, %149, %53
  %161 = add nsw i32 %42, -1
  br label %162

162:                                              ; preds = %40, %47, %160
  %163 = phi i32 [ %161, %160 ], [ %42, %47 ], [ %42, %40 ]
  %164 = phi i32 [ %54, %160 ], [ %41, %47 ], [ %41, %40 ]
  %165 = add nsw i32 %163, 1
  %166 = sub nsw i32 %31, %164
  %167 = icmp slt i32 %165, %166
  br i1 %167, label %40, label %36, !llvm.loop !22

168:                                              ; preds = %38, %168
  %169 = phi i64 [ 0, %38 ], [ %173, %168 ]
  %170 = getelementptr inbounds [101 x i8], [101 x i8]* %2, i64 0, i64 %169
  %171 = load i8, i8* %170, align 1, !tbaa !15
  call void @llvm.lifetime.start.p0i8(i64 1, i8* nonnull %1)
  store i8 %171, i8* %1, align 1, !tbaa !15
  %172 = call nonnull align 8 dereferenceable(8) %"class.std::basic_ostream"* @_ZSt16__ostream_insertIcSt11char_traitsIcEERSt13basic_ostreamIT_T0_ES6_PKS3_l(%"class.std::basic_ostream"* nonnull align 8 dereferenceable(8) @_ZSt4cout, i8* nonnull %1, i64 1)
  call void @llvm.lifetime.end.p0i8(i64 1, i8* nonnull %1)
  %173 = add nuw nsw i64 %169, 1
  %174 = icmp eq i64 %173, %39
  br i1 %174, label %175, label %168, !llvm.loop !23

175:                                              ; preds = %168, %27, %36
  call void @llvm.lifetime.end.p0i8(i64 101, i8* nonnull %3) #9
  ret i32 0
}

; Function Attrs: argmemonly mustprogress nofree nosync nounwind willreturn
declare void @llvm.lifetime.start.p0i8(i64 immarg, i8* nocapture) #4

; Function Attrs: argmemonly mustprogress nofree nounwind readonly willreturn
declare i64 @strlen(i8* nocapture) local_unnamed_addr #5

; Function Attrs: argmemonly mustprogress nofree nosync nounwind willreturn
declare void @llvm.lifetime.end.p0i8(i64 immarg, i8* nocapture) #4

declare nonnull align 8 dereferenceable(16) %"class.std::basic_istream"* @_ZNSi7getlineEPclc(%"class.std::basic_istream"* nonnull align 8 dereferenceable(16), i8*, i64, i8 signext) local_unnamed_addr #0

; Function Attrs: noreturn
declare void @_ZSt16__throw_bad_castv() local_unnamed_addr #6

declare void @_ZNKSt5ctypeIcE13_M_widen_initEv(%"class.std::ctype"* nonnull align 8 dereferenceable(570)) local_unnamed_addr #0

declare nonnull align 8 dereferenceable(8) %"class.std::basic_ostream"* @_ZSt16__ostream_insertIcSt11char_traitsIcEERSt13basic_ostreamIT_T0_ES6_PKS3_l(%"class.std::basic_ostream"* nonnull align 8 dereferenceable(8), i8*, i64) local_unnamed_addr #0

; Function Attrs: sspstrong uwtable
define internal void @_GLOBAL__sub_I_509.cpp() #7 section ".text.startup" {
  tail call void @_ZNSt8ios_base4InitC1Ev(%"class.std::ios_base::Init"* nonnull align 1 dereferenceable(1) @_ZStL8__ioinit)
  %1 = tail call i32 @__cxa_atexit(void (i8*)* bitcast (void (%"class.std::ios_base::Init"*)* @_ZNSt8ios_base4InitD1Ev to void (i8*)*), i8* getelementptr inbounds (%"class.std::ios_base::Init", %"class.std::ios_base::Init"* @_ZStL8__ioinit, i64 0, i32 0), i8* nonnull @__dso_handle) #9
  ret void
}

; Function Attrs: nofree nosync nounwind readnone speculatable willreturn
declare i64 @llvm.smax.i64(i64, i64) #8


!llvm.module.flags = !{!0, !1, !2, !3}
!llvm.ident = !{!4}

!0 = !{i32 1, !"wchar_size", i32 4}
!1 = !{i32 7, !"PIC Level", i32 2}
!2 = !{i32 7, !"PIE Level", i32 2}
!3 = !{i32 7, !"uwtable", i32 1}
!4 = !{!"clang version 13.0.0"}
!5 = !{!6, !6, i64 0}
!6 = !{!"vtable pointer", !7, i64 0}
!7 = !{!"Simple C++ TBAA"}
!8 = !{!9, !10, i64 240}
!9 = !{!"_ZTSSt9basic_iosIcSt11char_traitsIcEE", !10, i64 216, !11, i64 224, !12, i64 225, !10, i64 232, !10, i64 240, !10, i64 248, !10, i64 256}
!10 = !{!"any pointer", !11, i64 0}
!11 = !{!"omnipotent char", !7, i64 0}
!12 = !{!"bool", !11, i64 0}
!13 = !{!14, !11, i64 56}
!14 = !{!"_ZTSSt5ctypeIcE", !10, i64 16, !12, i64 24, !10, i64 32, !10, i64 40, !10, i64 48, !11, i64 56, !11, i64 57, !11, i64 313, !11, i64 569}
!15 = !{!11, !11, i64 0}
!16 = distinct !{!16, !17, !18}
!17 = !{!"llvm.loop.mustprogress"}
!18 = !{!"llvm.loop.isvectorized", i32 1}
!19 = distinct !{!19, !17, !18}
!20 = distinct !{!20, !17, !21, !18}
!21 = !{!"llvm.loop.unroll.runtime.disable"}
!22 = distinct !{!22, !17}
!23 = distinct !{!23, !17}
